target datalayout = "e-m:e-p270:32:32-p271:32:32-p272:64:64-i64:64-i128:128-f80:128-n8:16:32:64-S128"
target triple = "x86_64-unknown-linux-gnu"

%"class.icu_75::UnicodeString" = type { %"class.icu_75::Replaceable", %"union.icu_75::UnicodeString::StackBufferOrFields" }
%"class.icu_75::Replaceable" = type { %"class.icu_75::UObject" }
%"class.icu_75::UObject" = type { ptr }
%"union.icu_75::UnicodeString::StackBufferOrFields" = type { %struct.anon.0, [32 x i8] }
%struct.anon.0 = type { i16, i32, i32, ptr }
%"struct.std::atomic" = type { %"struct.std::__atomic_base" }
%"struct.std::__atomic_base" = type { i32 }
%struct.anon = type { i16, [27 x i16] }

; Function Attrs: mustprogress nounwind uwtable
define linkonce_odr noundef i32 @_ZN6icu_7515umtx_atomic_decEPSt6atomicIiE(ptr noundef %var) #0 comdat {
entry:
  %this.addr.i = alloca ptr, align 8
  %__i.addr.i = alloca i32, align 4
  %__m.addr.i = alloca i32, align 4
  %.atomictmp.i = alloca i32, align 4
  %atomic-temp.i = alloca i32, align 4
  %var.addr = alloca ptr, align 8
  store ptr %var, ptr %var.addr, align 8
  %0 = load ptr, ptr %var.addr, align 8
  store ptr %0, ptr %this.addr.i, align 8
  store i32 1, ptr %__i.addr.i, align 4
  store i32 5, ptr %__m.addr.i, align 4
  %this1.i = load ptr, ptr %this.addr.i, align 8
  %1 = load i32, ptr %__m.addr.i, align 4
  %2 = load i32, ptr %__i.addr.i, align 4
  store i32 %2, ptr %.atomictmp.i, align 4
  switch i32 %1, label %monotonic.i [
    i32 1, label %acquire.i
    i32 2, label %acquire.i
    i32 3, label %release.i
    i32 4, label %acqrel.i
    i32 5, label %seqcst.i
  ]

monotonic.i:                                      ; preds = %entry
  %3 = load i32, ptr %.atomictmp.i, align 4
  %4 = atomicrmw sub ptr %this1.i, i32 %3 monotonic, align 4
  store i32 %4, ptr %atomic-temp.i, align 4
  br label %_ZNSt13__atomic_baseIiE9fetch_subEiSt12memory_order.exit

acquire.i:                                        ; preds = %entry, %entry
  %5 = load i32, ptr %.atomictmp.i, align 4
  %6 = atomicrmw sub ptr %this1.i, i32 %5 acquire, align 4
  store i32 %6, ptr %atomic-temp.i, align 4
  br label %_ZNSt13__atomic_baseIiE9fetch_subEiSt12memory_order.exit

release.i:                                        ; preds = %entry
  %7 = load i32, ptr %.atomictmp.i, align 4
  %8 = atomicrmw sub ptr %this1.i, i32 %7 release, align 4
  store i32 %8, ptr %atomic-temp.i, align 4
  br label %_ZNSt13__atomic_baseIiE9fetch_subEiSt12memory_order.exit

acqrel.i:                                         ; preds = %entry
  %9 = load i32, ptr %.atomictmp.i, align 4
  %10 = atomicrmw sub ptr %this1.i, i32 %9 acq_rel, align 4
  store i32 %10, ptr %atomic-temp.i, align 4
  br label %_ZNSt13__atomic_baseIiE9fetch_subEiSt12memory_order.exit

seqcst.i:                                         ; preds = %entry
  %11 = load i32, ptr %.atomictmp.i, align 4
  %12 = atomicrmw sub ptr %this1.i, i32 %11 seq_cst, align 4
  store i32 %12, ptr %atomic-temp.i, align 4
  br label %_ZNSt13__atomic_baseIiE9fetch_subEiSt12memory_order.exit

_ZNSt13__atomic_baseIiE9fetch_subEiSt12memory_order.exit: ; preds = %seqcst.i, %acqrel.i, %release.i, %acquire.i, %monotonic.i
  %13 = load i32, ptr %atomic-temp.i, align 4
  %sub = sub nsw i32 %13, 1
  ret i32 %sub
}

; Function Attrs: mustprogress nounwind uwtable
define linkonce_odr noundef signext i8 @_ZNK6icu_7513UnicodeString14hasShortLengthEv(ptr noundef nonnull align 8 dereferenceable(64) %this) #0 comdat align 2 {
entry:
  %this.addr = alloca ptr, align 8
  store ptr %this, ptr %this.addr, align 8
  %this1 = load ptr, ptr %this.addr, align 8
  %fUnion = getelementptr inbounds %"class.icu_75::UnicodeString", ptr %this1, i32 0, i32 1
  %fLengthAndFlags = getelementptr inbounds %struct.anon.0, ptr %fUnion, i32 0, i32 0
  %0 = load i16, ptr %fLengthAndFlags, align 8
  %conv = sext i16 %0 to i32
  %cmp = icmp sge i32 %conv, 0
  %conv2 = zext i1 %cmp to i8
  ret i8 %conv2
}

; Function Attrs: mustprogress nounwind uwtable
define linkonce_odr noundef i32 @_ZNK6icu_7513UnicodeString14getShortLengthEv(ptr noundef nonnull align 8 dereferenceable(64) %this) #0 comdat align 2 {
entry:
  %this.addr = alloca ptr, align 8
  store ptr %this, ptr %this.addr, align 8
  %this1 = load ptr, ptr %this.addr, align 8
  %fUnion = getelementptr inbounds %"class.icu_75::UnicodeString", ptr %this1, i32 0, i32 1
  %fLengthAndFlags = getelementptr inbounds %struct.anon.0, ptr %fUnion, i32 0, i32 0
  %0 = load i16, ptr %fLengthAndFlags, align 8
  %conv = sext i16 %0 to i32
  %shr = ashr i32 %conv, 5
  ret i32 %shr
}

; Function Attrs: mustprogress uwtable
define noundef i32 @_ZN6icu_7513UnicodeString9removeRefEv(ptr noundef nonnull align 8 dereferenceable(64) %this) #3 align 2 {
entry:
  %this.addr = alloca ptr, align 8
  store ptr %this, ptr %this.addr, align 8
  %this1 = load ptr, ptr %this.addr, align 8
  %fUnion = getelementptr inbounds %"class.icu_75::UnicodeString", ptr %this1, i32 0, i32 1
  %fArray = getelementptr inbounds %struct.anon.0, ptr %fUnion, i32 0, i32 3
  %0 = load ptr, ptr %fArray, align 8
  %add.ptr = getelementptr inbounds %"struct.std::atomic", ptr %0, i64 -1
  %call = call noundef i32 @_ZN6icu_7515umtx_atomic_decEPSt6atomicIiE(ptr noundef %add.ptr)
  ret i32 %call
}

; Function Attrs: mustprogress nounwind uwtable
define void @_ZN6icu_7513UnicodeString14copyFieldsFromERS0_a(ptr noundef nonnull align 8 dereferenceable(64) %this, ptr noundef nonnull align 8 dereferenceable(64) %src, i8 noundef signext %setSrcToBogus) #0 align 2 personality ptr @__gxx_personality_v0 {
entry:
  %this.addr = alloca ptr, align 8
  %src.addr = alloca ptr, align 8
  %setSrcToBogus.addr = alloca i8, align 1
  %lengthAndFlags = alloca i16, align 2
  store ptr %this, ptr %this.addr, align 8
  store ptr %src, ptr %src.addr, align 8
  store i8 %setSrcToBogus, ptr %setSrcToBogus.addr, align 1
  %this1 = load ptr, ptr %this.addr, align 8
  %0 = load ptr, ptr %src.addr, align 8
  %fUnion = getelementptr inbounds %"class.icu_75::UnicodeString", ptr %0, i32 0, i32 1
  %fLengthAndFlags = getelementptr inbounds %struct.anon.0, ptr %fUnion, i32 0, i32 0
  %1 = load i16, ptr %fLengthAndFlags, align 8
  %fUnion2 = getelementptr inbounds %"class.icu_75::UnicodeString", ptr %this1, i32 0, i32 1
  %fLengthAndFlags3 = getelementptr inbounds %struct.anon.0, ptr %fUnion2, i32 0, i32 0
  store i16 %1, ptr %fLengthAndFlags3, align 8
  store i16 %1, ptr %lengthAndFlags, align 2
  %2 = load i16, ptr %lengthAndFlags, align 2
  %conv = sext i16 %2 to i32
  %and = and i32 %conv, 2
  %tobool = icmp ne i32 %and, 0
  br i1 %tobool, label %if.then, label %if.else

if.then:                                          ; preds = %entry
  %3 = load ptr, ptr %src.addr, align 8
  %cmp = icmp ne ptr %this1, %3
  br i1 %cmp, label %if.then4, label %if.end

if.then4:                                         ; preds = %if.then
  br label %do.body

do.body:                                          ; preds = %if.then4
  %fUnion5 = getelementptr inbounds %"class.icu_75::UnicodeString", ptr %this1, i32 0, i32 1
  %fBuffer = getelementptr inbounds %struct.anon, ptr %fUnion5, i32 0, i32 1
  %arraydecay = getelementptr inbounds [27 x i16], ptr %fBuffer, i64 0, i64 0
  %4 = load ptr, ptr %src.addr, align 8
  %fUnion6 = getelementptr inbounds %"class.icu_75::UnicodeString", ptr %4, i32 0, i32 1
  %fBuffer7 = getelementptr inbounds %struct.anon, ptr %fUnion6, i32 0, i32 1
  %arraydecay8 = getelementptr inbounds [27 x i16], ptr %fBuffer7, i64 0, i64 0
  %call = invoke noundef i32 @_ZNK6icu_7513UnicodeString14getShortLengthEv(ptr noundef nonnull align 8 dereferenceable(64) %this1)
          to label %invoke.cont unwind label %terminate.lpad

invoke.cont:                                      ; preds = %do.body
  %mul = mul nsw i32 %call, 2
  %conv9 = sext i32 %mul to i64
  call void @llvm.memcpy.p0.p0.i64(ptr align 2 %arraydecay, ptr align 2 %arraydecay8, i64 %conv9, i1 false)
  br label %do.cond

do.cond:                                          ; preds = %invoke.cont
  br label %do.end

do.end:                                           ; preds = %do.cond
  br label %if.end

if.end:                                           ; preds = %do.end, %if.then
  br label %if.end33

if.else:                                          ; preds = %entry
  %5 = load ptr, ptr %src.addr, align 8
  %fUnion10 = getelementptr inbounds %"class.icu_75::UnicodeString", ptr %5, i32 0, i32 1
  %fArray = getelementptr inbounds %struct.anon.0, ptr %fUnion10, i32 0, i32 3
  %6 = load ptr, ptr %fArray, align 8
  %fUnion11 = getelementptr inbounds %"class.icu_75::UnicodeString", ptr %this1, i32 0, i32 1
  %fArray12 = getelementptr inbounds %struct.anon.0, ptr %fUnion11, i32 0, i32 3
  store ptr %6, ptr %fArray12, align 8
  %7 = load ptr, ptr %src.addr, align 8
  %fUnion13 = getelementptr inbounds %"class.icu_75::UnicodeString", ptr %7, i32 0, i32 1
  %fCapacity = getelementptr inbounds %struct.anon.0, ptr %fUnion13, i32 0, i32 2
  %8 = load i32, ptr %fCapacity, align 8
  %fUnion14 = getelementptr inbounds %"class.icu_75::UnicodeString", ptr %this1, i32 0, i32 1
  %fCapacity15 = getelementptr inbounds %struct.anon.0, ptr %fUnion14, i32 0, i32 2
  store i32 %8, ptr %fCapacity15, align 8
  %call17 = invoke noundef signext i8 @_ZNK6icu_7513UnicodeString14hasShortLengthEv(ptr noundef nonnull align 8 dereferenceable(64) %this1)
          to label %invoke.cont16 unwind label %terminate.lpad

invoke.cont16:                                    ; preds = %if.else
  %tobool18 = icmp ne i8 %call17, 0
  br i1 %tobool18, label %if.end23, label %if.then19

if.then19:                                        ; preds = %invoke.cont16
  %9 = load ptr, ptr %src.addr, align 8
  %fUnion20 = getelementptr inbounds %"class.icu_75::UnicodeString", ptr %9, i32 0, i32 1
  %fLength = getelementptr inbounds %struct.anon.0, ptr %fUnion20, i32 0, i32 1
  %10 = load i32, ptr %fLength, align 4
  %fUnion21 = getelementptr inbounds %"class.icu_75::UnicodeString", ptr %this1, i32 0, i32 1
  %fLength22 = getelementptr inbounds %struct.anon.0, ptr %fUnion21, i32 0, i32 1
  store i32 %10, ptr %fLength22, align 4
  br label %if.end23

if.end23:                                         ; preds = %if.then19, %invoke.cont16
  %11 = load i8, ptr %setSrcToBogus.addr, align 1
  %tobool24 = icmp ne i8 %11, 0
  br i1 %tobool24, label %if.then25, label %if.end32

if.then25:                                        ; preds = %if.end23
  %12 = load ptr, ptr %src.addr, align 8
  %fUnion26 = getelementptr inbounds %"class.icu_75::UnicodeString", ptr %12, i32 0, i32 1
  %fLengthAndFlags27 = getelementptr inbounds %struct.anon.0, ptr %fUnion26, i32 0, i32 0
  store i16 1, ptr %fLengthAndFlags27, align 8
  %13 = load ptr, ptr %src.addr, align 8
  %fUnion28 = getelementptr inbounds %"class.icu_75::UnicodeString", ptr %13, i32 0, i32 1
  %fArray29 = getelementptr inbounds %struct.anon.0, ptr %fUnion28, i32 0, i32 3
  store ptr null, ptr %fArray29, align 8
  %14 = load ptr, ptr %src.addr, align 8
  %fUnion30 = getelementptr inbounds %"class.icu_75::UnicodeString", ptr %14, i32 0, i32 1
  %fCapacity31 = getelementptr inbounds %struct.anon.0, ptr %fUnion30, i32 0, i32 2
  store i32 0, ptr %fCapacity31, align 8
  br label %if.end32

if.end32:                                         ; preds = %if.then25, %if.end23
  br label %if.end33

if.end33:                                         ; preds = %if.end32, %if.end
  ret void

terminate.lpad:                                   ; preds = %if.else, %do.body
  %15 = landingpad { ptr, i32 }
          catch ptr null
  %16 = extractvalue { ptr, i32 } %15, 0
  call void @__clang_call_terminate(ptr %16) #10
  unreachable
}

; Function Attrs: mustprogress uwtable
define void @_ZN6icu_7513UnicodeString12releaseArrayEv(ptr noundef nonnull align 8 dereferenceable(64) %this) #3 align 2 {
entry:
  %this.addr = alloca ptr, align 8
  store ptr %this, ptr %this.addr, align 8
  %this1 = load ptr, ptr %this.addr, align 8
  %fUnion = getelementptr inbounds %"class.icu_75::UnicodeString", ptr %this1, i32 0, i32 1
  %fLengthAndFlags = getelementptr inbounds %struct.anon.0, ptr %fUnion, i32 0, i32 0
  %0 = load i16, ptr %fLengthAndFlags, align 8
  %conv = sext i16 %0 to i32
  %and = and i32 %conv, 4
  %tobool = icmp ne i32 %and, 0
  br i1 %tobool, label %land.lhs.true, label %if.end

land.lhs.true:                                    ; preds = %entry
  %call = call noundef i32 @_ZN6icu_7513UnicodeString9removeRefEv(ptr noundef nonnull align 8 dereferenceable(64) %this1)
  %cmp = icmp eq i32 %call, 0
  br i1 %cmp, label %if.then, label %if.end

if.then:                                          ; preds = %land.lhs.true
  %fUnion2 = getelementptr inbounds %"class.icu_75::UnicodeString", ptr %this1, i32 0, i32 1
  %fArray = getelementptr inbounds %struct.anon.0, ptr %fUnion2, i32 0, i32 3
  %1 = load ptr, ptr %fArray, align 8
  %add.ptr = getelementptr inbounds i32, ptr %1, i64 -1
  call void @uprv_free_75(ptr noundef %add.ptr)
  br label %if.end

if.end:                                           ; preds = %if.then, %land.lhs.true, %entry
  ret void
}

; Function Attrs: mustprogress nounwind uwtable
define noundef nonnull align 8 dereferenceable(64) ptr @_ZN6icu_7513UnicodeStringaSEOS0_(ptr noundef nonnull align 8 dereferenceable(64) %this, ptr noundef nonnull align 8 dereferenceable(64) %src) #0 align 2 personality ptr @__gxx_personality_v0 {
entry:
  %this.addr = alloca ptr, align 8
  %src.addr = alloca ptr, align 8
  store ptr %this, ptr %this.addr, align 8
  store ptr %src, ptr %src.addr, align 8
  %this1 = load ptr, ptr %this.addr, align 8
  invoke void @_ZN6icu_7513UnicodeString12releaseArrayEv(ptr noundef nonnull align 8 dereferenceable(64) %this1)
          to label %invoke.cont unwind label %terminate.lpad

invoke.cont:                                      ; preds = %entry
  %0 = load ptr, ptr %src.addr, align 8
  call void @_ZN6icu_7513UnicodeString14copyFieldsFromERS0_a(ptr noundef nonnull align 8 dereferenceable(64) %this1, ptr noundef nonnull align 8 dereferenceable(64) %0, i8 noundef signext 1) #9
  ret ptr %this1

terminate.lpad:                                   ; preds = %entry
  %1 = landingpad { ptr, i32 }
          catch ptr null
  %2 = extractvalue { ptr, i32 } %1, 0
  call void @__clang_call_terminate(ptr %2) #10
  unreachable
}