; Function Attrs: mustprogress nounwind uwtable
define noundef nonnull align 8 dereferenceable(64) ptr @_ZN6icu_7513UnicodeStringaSEOS0_(ptr noundef nonnull returned align 8 dereferenceable(64) %this, ptr noundef nonnull align 8 dereferenceable(64) %src) local_unnamed_addr #0 align 2 personality ptr @__gxx_personality_v0 {
entry:
  %fUnion.i = getelementptr inbounds i8, ptr %this, i64 8
  %0 = load i16, ptr %fUnion.i, align 8
  %1 = and i16 %0, 4
  %tobool.not.i = icmp eq i16 %1, 0
  br i1 %tobool.not.i, label %invoke.cont, label %land.lhs.true.i

land.lhs.true.i:                                  ; preds = %entry
  %fArray.i.i = getelementptr inbounds i8, ptr %this, i64 24
  %2 = load ptr, ptr %fArray.i.i, align 8
  %add.ptr.i.i = getelementptr inbounds i8, ptr %2, i64 -4
  %3 = atomicrmw sub ptr %add.ptr.i.i, i32 1 seq_cst, align 4
  %cmp.i = icmp eq i32 %3, 1
  br i1 %cmp.i, label %if.then.i, label %invoke.cont

if.then.i:                                        ; preds = %land.lhs.true.i
  %4 = load ptr, ptr %fArray.i.i, align 8
  %add.ptr.i = getelementptr inbounds i8, ptr %4, i64 -4
  invoke void @uprv_free_75(ptr noundef nonnull %add.ptr.i)
          to label %invoke.cont unwind label %terminate.lpad

invoke.cont:                                      ; preds = %land.lhs.true.i, %entry, %if.then.i
  %fUnion.i1 = getelementptr inbounds i8, ptr %src, i64 8
  %5 = load i16, ptr %fUnion.i1, align 8
  store i16 %5, ptr %fUnion.i, align 8
  %6 = and i16 %5, 2
  %tobool.not.i2 = icmp eq i16 %6, 0
  br i1 %tobool.not.i2, label %if.else.i, label %if.then.i3

if.then.i3:                                       ; preds = %invoke.cont
  %cmp.not.i = icmp eq ptr %this, %src
  br i1 %cmp.not.i, label %_ZN6icu_7513UnicodeString14copyFieldsFromERS0_a.exit, label %do.body.i

do.body.i:                                        ; preds = %if.then.i3
  %fBuffer.i = getelementptr inbounds i8, ptr %this, i64 10
  %fBuffer7.i = getelementptr inbounds i8, ptr %src, i64 10
  %7 = ashr i16 %5, 5
  %shr.i.i = sext i16 %7 to i32
  %mul.i = shl nsw i32 %shr.i.i, 1
  %conv9.i = sext i32 %mul.i to i64
  tail call void @llvm.memcpy.p0.p0.i64(ptr nonnull align 2 %fBuffer.i, ptr nonnull align 2 %fBuffer7.i, i64 %conv9.i, i1 false)
  br label %_ZN6icu_7513UnicodeString14copyFieldsFromERS0_a.exit

if.else.i:                                        ; preds = %invoke.cont
  %fArray.i = getelementptr inbounds i8, ptr %src, i64 24
  %8 = load ptr, ptr %fArray.i, align 8
  %fArray12.i = getelementptr inbounds i8, ptr %this, i64 24
  store ptr %8, ptr %fArray12.i, align 8
  %fCapacity.i = getelementptr inbounds i8, ptr %src, i64 16
  %9 = load i32, ptr %fCapacity.i, align 8
  %fCapacity15.i = getelementptr inbounds i8, ptr %this, i64 16
  store i32 %9, ptr %fCapacity15.i, align 8
  %cmp.i.i = icmp slt i16 %5, 0
  br i1 %cmp.i.i, label %if.then19.i, label %if.end23.i

if.then19.i:                                      ; preds = %if.else.i
  %fLength.i = getelementptr inbounds i8, ptr %src, i64 12
  %10 = load i32, ptr %fLength.i, align 4
  %fLength22.i = getelementptr inbounds i8, ptr %this, i64 12
  store i32 %10, ptr %fLength22.i, align 4
  br label %if.end23.i

if.end23.i:                                       ; preds = %if.then19.i, %if.else.i
  store i16 1, ptr %fUnion.i1, align 8
  store ptr null, ptr %fArray.i, align 8
  store i32 0, ptr %fCapacity.i, align 8
  br label %_ZN6icu_7513UnicodeString14copyFieldsFromERS0_a.exit

_ZN6icu_7513UnicodeString14copyFieldsFromERS0_a.exit: ; preds = %if.then.i3, %do.body.i, %if.end23.i
  ret ptr %this

terminate.lpad:                                   ; preds = %if.then.i
  %11 = landingpad { ptr, i32 }
          catch ptr null
  %12 = extractvalue { ptr, i32 } %11, 0
  tail call void @__clang_call_terminate(ptr %12) #23
  unreachable
}